target datalayout = "e-m:e-p270:32:32-p271:32:32-p272:64:64-i64:64-i128:128-f80:128-n8:16:32:64-S128"
target triple = "x86_64-pc-linux-gnu"

%struct.tr2_tgt = type { ptr, ptr, ptr, ptr, ptr, ptr, ptr, ptr, ptr, ptr, ptr, ptr, ptr, ptr, ptr, ptr, ptr, ptr, ptr, ptr, ptr, ptr, ptr, ptr, ptr, ptr, ptr, ptr, ptr, ptr }

@trace2_enabled = internal global i32 0, align 4
@tr2_tgt_builtins = internal global [4 x ptr] [ptr @tr2_tgt_normal, ptr @tr2_tgt_perf, ptr @tr2_tgt_event, ptr null], align 16

; Function Attrs: nounwind uwtable
define dso_local void @trace2_cmd_path_fl(ptr noundef %0, i32 noundef %1, ptr noundef %2) #0 {
  %4 = alloca ptr, align 8
  %5 = alloca i32, align 4
  %6 = alloca ptr, align 8
  %7 = alloca ptr, align 8
  %8 = alloca i32, align 4
  %9 = alloca i32, align 4
  store ptr %0, ptr %4, align 8, !tbaa !4
  store i32 %1, ptr %5, align 4, !tbaa !9
  store ptr %2, ptr %6, align 8, !tbaa !4
  call void @llvm.lifetime.start.p0(i64 8, ptr %7) #9
  call void @llvm.lifetime.start.p0(i64 4, ptr %8) #9
  %10 = load i32, ptr @trace2_enabled, align 4, !tbaa !9
  %11 = icmp ne i32 %10, 0
  br i1 %11, label %13, label %12

12:                                               ; preds = %3
  store i32 1, ptr %9, align 4
  br label %49

13:                                               ; preds = %3
  store i32 0, ptr %8, align 4, !tbaa !9
  %14 = load i32, ptr %8, align 4, !tbaa !9
  %15 = sext i32 %14 to i64
  %16 = getelementptr inbounds [4 x ptr], ptr @tr2_tgt_builtins, i64 0, i64 %15
  %17 = load ptr, ptr %16, align 8, !tbaa !11
  store ptr %17, ptr %7, align 8, !tbaa !11
  br label %18

18:                                               ; preds = %41, %13
  %19 = load ptr, ptr %7, align 8, !tbaa !11
  %20 = icmp ne ptr %19, null
  br i1 %20, label %21, label %48

21:                                               ; preds = %18
  %22 = load ptr, ptr %7, align 8, !tbaa !11
  %23 = getelementptr inbounds nuw %struct.tr2_tgt, ptr %22, i32 0, i32 0
  %24 = load ptr, ptr %23, align 8, !tbaa !13
  %25 = call i32 @tr2_dst_trace_want(ptr noundef %24)
  %26 = icmp ne i32 %25, 0
  br i1 %26, label %27, label %40

27:                                               ; preds = %21
  %28 = load ptr, ptr %7, align 8, !tbaa !11
  %29 = getelementptr inbounds nuw %struct.tr2_tgt, ptr %28, i32 0, i32 9
  %30 = load ptr, ptr %29, align 8, !tbaa !42
  %31 = icmp ne ptr %30, null
  br i1 %31, label %32, label %39

32:                                               ; preds = %27
  %33 = load ptr, ptr %7, align 8, !tbaa !11
  %34 = getelementptr inbounds nuw %struct.tr2_tgt, ptr %33, i32 0, i32 9
  %35 = load ptr, ptr %34, align 8, !tbaa !42
  %36 = load ptr, ptr %4, align 8, !tbaa !4
  %37 = load i32, ptr %5, align 4, !tbaa !9
  %38 = load ptr, ptr %6, align 8, !tbaa !4
  call void %35(ptr noundef %36, i32 noundef %37, ptr noundef %38)
  br label %39

39:                                               ; preds = %32, %27
  br label %40

40:                                               ; preds = %39, %21
  br label %41

41:                                               ; preds = %40
  %42 = load i32, ptr %8, align 4, !tbaa !9
  %43 = add nsw i32 %42, 1
  store i32 %43, ptr %8, align 4, !tbaa !9
  %44 = load i32, ptr %8, align 4, !tbaa !9
  %45 = sext i32 %44 to i64
  %46 = getelementptr inbounds [4 x ptr], ptr @tr2_tgt_builtins, i64 0, i64 %45
  %47 = load ptr, ptr %46, align 8, !tbaa !11
  store ptr %47, ptr %7, align 8, !tbaa !11
  br label %18, !llvm.loop !43

48:                                               ; preds = %18
  store i32 0, ptr %9, align 4
  br label %49

49:                                               ; preds = %48, %12
  call void @llvm.lifetime.end.p0(i64 4, ptr %8) #9
  call void @llvm.lifetime.end.p0(i64 8, ptr %7) #9
  %50 = load i32, ptr %9, align 4
  switch i32 %50, label %52 [
    i32 0, label %51
    i32 1, label %51
  ]

51:                                               ; preds = %49, %49
  ret void

52:                                               ; preds = %49
  unreachable
}